target datalayout = "e-m:e-p270:32:32-p271:32:32-p272:64:64-i64:64-i128:128-f80:128-n8:16:32:64-S128"
target triple = "x86_64-pc-linux-gnu"

%struct.msxml_ctx = type { ptr, ptr, ptr, ptr, ptr }
%struct.msxml_ictx = type { ptr, i32, ptr, i64, ptr, i32 }
%struct.cli_ctx_tag = type { ptr, ptr, ptr, ptr, ptr, ptr, ptr, i64, ptr, i32, i32, ptr, i32, i32, ptr, [16 x i8], ptr, ptr, ptr, ptr, ptr, ptr, %struct.timeval, i8, i8 }
%struct.timeval = type { i64, i64 }

@.str = private unnamed_addr constant [74 x i8] c"cli_msxml_parse_document: encountered halt event in parsing xml document\0A\00", align 1
@.str.1 = private unnamed_addr constant [69 x i8] c"cli_msxml_parse_document: encountered issue in parsing xml document\0A\00", align 1
@.str.2 = private unnamed_addr constant [17 x i8] c"MSXML_INTR_VIRUS\00", align 1
@.str.3 = private unnamed_addr constant [19 x i8] c"MSXML_INTR_TIMEOUT\00", align 1
@.str.4 = private unnamed_addr constant [22 x i8] c"MSXML_ERROR_XMLPARSER\00", align 1
@.str.5 = private unnamed_addr constant [21 x i8] c"MSXML_ERROR_OUTOFMEM\00", align 1
@.str.6 = private unnamed_addr constant [22 x i8] c"MSXML_ERROR_MALFORMED\00", align 1
@.str.7 = private unnamed_addr constant [18 x i8] c"MSXML_ERROR_OTHER\00", align 1
@.str.8 = private unnamed_addr constant [70 x i8] c"cli_msxml_parse_document: suppressing parsing error to continue scan\0A\00", align 1

; Function Attrs: nounwind uwtable
define i32 @cli_msxml_parse_document(ptr noundef %0, ptr noundef %1, ptr noundef %2, i64 noundef %3, i32 noundef %4, ptr noundef %5) #0 {
  %7 = alloca i32, align 4
  %8 = alloca ptr, align 8
  %9 = alloca ptr, align 8
  %10 = alloca ptr, align 8
  %11 = alloca i64, align 8
  %12 = alloca i32, align 4
  %13 = alloca ptr, align 8
  %14 = alloca %struct.msxml_ctx, align 8
  %15 = alloca %struct.msxml_ictx, align 8
  %16 = alloca i32, align 4
  %17 = alloca i32, align 4
  %18 = alloca i32, align 4
  store ptr %0, ptr %8, align 8
  store ptr %1, ptr %9, align 8
  store ptr %2, ptr %10, align 8
  store i64 %3, ptr %11, align 8
  store i32 %4, ptr %12, align 4
  store ptr %5, ptr %13, align 8
  store i32 0, ptr %17, align 4
  %19 = load ptr, ptr %8, align 8
  %20 = icmp ne ptr %19, null
  br i1 %20, label %22, label %21

21:                                               ; preds = %6
  store i32 2, ptr %7, align 4
  br label %151

22:                                               ; preds = %6
  %23 = load ptr, ptr %13, align 8
  %24 = icmp ne ptr %23, null
  br i1 %24, label %26, label %25

25:                                               ; preds = %22
  call void @llvm.memset.p0.i64(ptr align 8 %14, i8 0, i64 40, i1 false)
  store ptr %14, ptr %13, align 8
  br label %26

26:                                               ; preds = %25, %22
  %27 = load ptr, ptr %8, align 8
  %28 = getelementptr inbounds %struct.msxml_ictx, ptr %15, i32 0, i32 0
  store ptr %27, ptr %28, align 8
  %29 = load i32, ptr %12, align 4
  %30 = getelementptr inbounds %struct.msxml_ictx, ptr %15, i32 0, i32 1
  store i32 %29, ptr %30, align 8
  %31 = load ptr, ptr %10, align 8
  %32 = getelementptr inbounds %struct.msxml_ictx, ptr %15, i32 0, i32 2
  store ptr %31, ptr %32, align 8
  %33 = load i64, ptr %11, align 8
  %34 = getelementptr inbounds %struct.msxml_ictx, ptr %15, i32 0, i32 3
  store i64 %33, ptr %34, align 8
  %35 = load i32, ptr %12, align 4
  %36 = and i32 %35, 1
  %37 = icmp ne i32 %36, 0
  br i1 %37, label %38, label %52

38:                                               ; preds = %26
  %39 = load ptr, ptr %8, align 8
  %40 = getelementptr inbounds %struct.cli_ctx_tag, ptr %39, i32 0, i32 21
  %41 = load ptr, ptr %40, align 8
  %42 = getelementptr inbounds %struct.msxml_ictx, ptr %15, i32 0, i32 4
  store ptr %41, ptr %42, align 8
  %43 = getelementptr inbounds %struct.msxml_ictx, ptr %15, i32 0, i32 4
  %44 = load ptr, ptr %43, align 8
  %45 = icmp ne ptr %44, null
  br i1 %45, label %50, label %46

46:                                               ; preds = %38
  %47 = getelementptr inbounds %struct.msxml_ictx, ptr %15, i32 0, i32 1
  %48 = load i32, ptr %47, align 8
  %49 = and i32 %48, -2
  store i32 %49, ptr %47, align 8
  br label %50

50:                                               ; preds = %46, %38
  %51 = getelementptr inbounds %struct.msxml_ictx, ptr %15, i32 0, i32 5
  store i32 0, ptr %51, align 8
  br label %54

52:                                               ; preds = %26
  %53 = getelementptr inbounds %struct.msxml_ictx, ptr %15, i32 0, i32 4
  store ptr null, ptr %53, align 8
  br label %54

54:                                               ; preds = %52, %50
  %55 = load ptr, ptr %13, align 8
  %56 = getelementptr inbounds %struct.msxml_ctx, ptr %55, i32 0, i32 4
  store ptr %15, ptr %56, align 8
  %57 = load i32, ptr %12, align 4
  %58 = and i32 %57, 2
  %59 = icmp ne i32 %58, 0
  br i1 %59, label %62, label %60

60:                                               ; preds = %54
  %61 = load ptr, ptr %9, align 8
  call void @xmlTextReaderSetErrorHandler(ptr noundef %61, ptr noundef @msxml_error_handler, ptr noundef null)
  br label %62

62:                                               ; preds = %60, %54
  br label %63

63:                                               ; preds = %98, %62
  %64 = load ptr, ptr %9, align 8
  %65 = call i32 @xmlTextReaderRead(ptr noundef %64)
  store i32 %65, ptr %16, align 4
  %66 = icmp eq i32 %65, 1
  br i1 %66, label %67, label %99

67:                                               ; preds = %63
  %68 = getelementptr inbounds %struct.msxml_ictx, ptr %15, i32 0, i32 1
  %69 = load i32, ptr %68, align 8
  %70 = and i32 %69, 1
  %71 = icmp ne i32 %70, 0
  br i1 %71, label %72, label %79

72:                                               ; preds = %67
  %73 = getelementptr inbounds %struct.msxml_ictx, ptr %15, i32 0, i32 0
  %74 = load ptr, ptr %73, align 8
  %75 = getelementptr inbounds %struct.msxml_ictx, ptr %15, i32 0, i32 5
  %76 = call i32 @cli_json_timeout_cycle_check(ptr noundef %74, ptr noundef %75)
  %77 = icmp ne i32 %76, 0
  br i1 %77, label %78, label %79

78:                                               ; preds = %72
  store i32 21, ptr %7, align 4
  br label %151

79:                                               ; preds = %72, %67
  %80 = load ptr, ptr %13, align 8
  %81 = load ptr, ptr %9, align 8
  %82 = getelementptr inbounds %struct.msxml_ictx, ptr %15, i32 0, i32 4
  %83 = load ptr, ptr %82, align 8
  %84 = call i32 @msxml_parse_element(ptr noundef %80, ptr noundef %81, i32 noundef 0, ptr noundef %83)
  store i32 %84, ptr %17, align 4
  %85 = load i32, ptr %17, align 4
  %86 = icmp ne i32 %85, 0
  br i1 %86, label %87, label %98

87:                                               ; preds = %79
  %88 = load i32, ptr %17, align 4
  %89 = icmp eq i32 %88, 1
  br i1 %89, label %96, label %90

90:                                               ; preds = %87
  %91 = load i32, ptr %17, align 4
  %92 = icmp eq i32 %91, 21
  br i1 %92, label %96, label %93

93:                                               ; preds = %90
  %94 = load i32, ptr %17, align 4
  %95 = icmp eq i32 %94, 22
  br i1 %95, label %96, label %97

96:                                               ; preds = %93, %90, %87
  call void (ptr, ...) @cli_dbgmsg(ptr noundef @.str)
  br label %99

97:                                               ; preds = %93
  call void (ptr, ...) @cli_warnmsg(ptr noundef @.str.1)
  br label %99

98:                                               ; preds = %79
  br label %63

99:                                               ; preds = %97, %96, %63
  %100 = load i32, ptr %16, align 4
  %101 = icmp eq i32 %100, -1
  br i1 %101, label %102, label %103

102:                                              ; preds = %99
  store i32 27, ptr %17, align 4
  br label %103

103:                                              ; preds = %102, %99
  %104 = getelementptr inbounds %struct.msxml_ictx, ptr %15, i32 0, i32 1
  %105 = load i32, ptr %104, align 8
  %106 = and i32 %105, 1
  %107 = icmp ne i32 %106, 0
  br i1 %107, label %108, label %141

108:                                              ; preds = %103
  store i32 0, ptr %18, align 4
  %109 = load i32, ptr %17, align 4
  switch i32 %109, label %131 [
    i32 0, label %110
    i32 22, label %110
    i32 1, label %111
    i32 21, label %115
    i32 27, label %119
    i32 20, label %123
    i32 26, label %127
  ]

110:                                              ; preds = %108, %108
  br label %135

111:                                              ; preds = %108
  %112 = getelementptr inbounds %struct.msxml_ictx, ptr %15, i32 0, i32 4
  %113 = load ptr, ptr %112, align 8
  %114 = call i32 @cli_json_parse_error(ptr noundef %113, ptr noundef @.str.2)
  store i32 %114, ptr %18, align 4
  br label %135

115:                                              ; preds = %108
  %116 = getelementptr inbounds %struct.msxml_ictx, ptr %15, i32 0, i32 4
  %117 = load ptr, ptr %116, align 8
  %118 = call i32 @cli_json_parse_error(ptr noundef %117, ptr noundef @.str.3)
  store i32 %118, ptr %18, align 4
  br label %135

119:                                              ; preds = %108
  %120 = getelementptr inbounds %struct.msxml_ictx, ptr %15, i32 0, i32 4
  %121 = load ptr, ptr %120, align 8
  %122 = call i32 @cli_json_parse_error(ptr noundef %121, ptr noundef @.str.4)
  store i32 %122, ptr %18, align 4
  br label %135

123:                                              ; preds = %108
  %124 = getelementptr inbounds %struct.msxml_ictx, ptr %15, i32 0, i32 4
  %125 = load ptr, ptr %124, align 8
  %126 = call i32 @cli_json_parse_error(ptr noundef %125, ptr noundef @.str.5)
  store i32 %126, ptr %18, align 4
  br label %135

127:                                              ; preds = %108
  %128 = getelementptr inbounds %struct.msxml_ictx, ptr %15, i32 0, i32 4
  %129 = load ptr, ptr %128, align 8
  %130 = call i32 @cli_json_parse_error(ptr noundef %129, ptr noundef @.str.6)
  store i32 %130, ptr %18, align 4
  br label %135

131:                                              ; preds = %108
  %132 = getelementptr inbounds %struct.msxml_ictx, ptr %15, i32 0, i32 4
  %133 = load ptr, ptr %132, align 8
  %134 = call i32 @cli_json_parse_error(ptr noundef %133, ptr noundef @.str.7)
  store i32 %134, ptr %18, align 4
  br label %135

135:                                              ; preds = %131, %127, %123, %119, %115, %111, %110
  %136 = load i32, ptr %18, align 4
  %137 = icmp ne i32 %136, 0
  br i1 %137, label %138, label %140

138:                                              ; preds = %135
  %139 = load i32, ptr %18, align 4
  store i32 %139, ptr %7, align 4
  br label %151

140:                                              ; preds = %135
  br label %141

141:                                              ; preds = %140, %103
  %142 = load i32, ptr %17, align 4
  %143 = icmp eq i32 %142, 22
  br i1 %143, label %144, label %145

144:                                              ; preds = %141
  store i32 0, ptr %17, align 4
  br label %145

145:                                              ; preds = %144, %141
  %146 = load i32, ptr %17, align 4
  %147 = icmp eq i32 %146, 27
  br i1 %147, label %148, label %149

148:                                              ; preds = %145
  call void (ptr, ...) @cli_dbgmsg(ptr noundef @.str.8)
  store i32 0, ptr %17, align 4
  br label %149

149:                                              ; preds = %148, %145
  %150 = load i32, ptr %17, align 4
  store i32 %150, ptr %7, align 4
  br label %151

151:                                              ; preds = %149, %138, %78, %21
  %152 = load i32, ptr %7, align 4
  ret i32 %152
}