; Function Attrs: nounwind uwtable
define i32 @cli_msxml_parse_document(ptr noundef %0, ptr noundef %1, ptr noundef %2, i64 noundef %3, i32 noundef %4, ptr noundef %5) local_unnamed_addr #0 {
  %7 = alloca %struct.msxml_ctx, align 8
  %8 = alloca %struct.msxml_ictx, align 8
  %.not = icmp eq ptr %0, null
  %.030.sroa.gep31 = getelementptr inbounds i8, ptr %7, i64 32
  br i1 %.not, label %.loopexit47, label %9

9:                                                ; preds = %6
  %.030.sroa.gep = getelementptr inbounds i8, ptr %5, i64 32
  %.not36 = icmp eq ptr %5, null
  br i1 %.not36, label %10, label %11

10:                                               ; preds = %9
  call void @llvm.memset.p0.i64(ptr noundef nonnull align 8 dereferenceable(40) %7, i8 0, i64 40, i1 false)
  br label %11

11:                                               ; preds = %10, %9
  %.030.sroa.phi = phi ptr [ %.030.sroa.gep, %9 ], [ %.030.sroa.gep31, %10 ]
  %.030 = phi ptr [ %5, %9 ], [ %7, %10 ]
  store ptr %0, ptr %8, align 8
  %12 = getelementptr inbounds i8, ptr %8, i64 8
  store i32 %4, ptr %12, align 8
  %13 = getelementptr inbounds i8, ptr %8, i64 16
  store ptr %2, ptr %13, align 8
  %14 = getelementptr inbounds i8, ptr %8, i64 24
  store i64 %3, ptr %14, align 8
  %15 = and i32 %4, 1
  %.not37 = icmp eq i32 %15, 0
  br i1 %.not37, label %24, label %16

16:                                               ; preds = %11
  %17 = getelementptr inbounds i8, ptr %0, i64 160
  %18 = load ptr, ptr %17, align 8
  %19 = getelementptr inbounds i8, ptr %8, i64 32
  store ptr %18, ptr %19, align 8
  %.not38 = icmp eq ptr %18, null
  br i1 %.not38, label %20, label %22

20:                                               ; preds = %16
  %21 = and i32 %4, -2
  store i32 %21, ptr %12, align 8
  br label %22

22:                                               ; preds = %20, %16
  %23 = getelementptr inbounds i8, ptr %8, i64 40
  store i32 0, ptr %23, align 8
  br label %26

24:                                               ; preds = %11
  %25 = getelementptr inbounds i8, ptr %8, i64 32
  store ptr null, ptr %25, align 8
  br label %26

26:                                               ; preds = %24, %22
  store ptr %8, ptr %.030.sroa.phi, align 8
  %27 = and i32 %4, 2
  %.not39 = icmp eq i32 %27, 0
  br i1 %.not39, label %28, label %29

28:                                               ; preds = %26
  call void @xmlTextReaderSetErrorHandler(ptr noundef %1, ptr noundef nonnull @msxml_error_handler, ptr noundef null) #8
  br label %29

29:                                               ; preds = %28, %26
  %30 = getelementptr inbounds i8, ptr %8, i64 40
  %31 = getelementptr inbounds i8, ptr %8, i64 32
  br label %32

32:                                               ; preds = %41, %29
  %33 = call i32 @xmlTextReaderRead(ptr noundef %1) #8
  %34 = icmp eq i32 %33, 1
  br i1 %34, label %35, label %.loopexit.loopexit

35:                                               ; preds = %32
  %36 = load i32, ptr %12, align 8
  %37 = and i32 %36, 1
  %.not40 = icmp eq i32 %37, 0
  br i1 %.not40, label %41, label %38

38:                                               ; preds = %35
  %39 = load ptr, ptr %8, align 8
  %40 = call i32 @cli_json_timeout_cycle_check(ptr noundef %39, ptr noundef nonnull %30) #8
  %.not41 = icmp eq i32 %40, 0
  br i1 %.not41, label %41, label %.loopexit47

41:                                               ; preds = %38, %35
  %42 = load ptr, ptr %31, align 8
  %43 = call fastcc i32 @msxml_parse_element(ptr noundef nonnull %.030, ptr noundef %1, i32 noundef 0, ptr noundef %42)
  switch i32 %43, label %45 [
    i32 0, label %32
    i32 22, label %44
    i32 21, label %44
    i32 1, label %44
  ]

44:                                               ; preds = %41, %41, %41
  call void (ptr, ...) @cli_dbgmsg(ptr noundef nonnull @.str) #8
  br label %.loopexit

45:                                               ; preds = %41
  call void (ptr, ...) @cli_warnmsg(ptr noundef nonnull @.str.1) #8
  br label %.loopexit

.loopexit.loopexit:                               ; preds = %32
  %46 = icmp eq i32 %33, -1
  %47 = select i1 %46, i32 27, i32 0
  br label %.loopexit

.loopexit:                                        ; preds = %.loopexit.loopexit, %45, %44
  %spec.select = phi i32 [ %43, %44 ], [ %43, %45 ], [ %47, %.loopexit.loopexit ]
  %48 = load i32, ptr %12, align 8
  %49 = and i32 %48, 1
  %.not43 = icmp eq i32 %49, 0
  br i1 %.not43, label %.thread, label %50

50:                                               ; preds = %.loopexit
  switch i32 %spec.select, label %55 [
    i32 0, label %.thread
    i32 22, label %.thread
    i32 1, label %56
    i32 21, label %51
    i32 27, label %52
    i32 20, label %53
    i32 26, label %54
  ]

51:                                               ; preds = %50
  br label %56

52:                                               ; preds = %50
  br label %56

53:                                               ; preds = %50
  br label %56

54:                                               ; preds = %50
  br label %56

55:                                               ; preds = %50
  br label %56

56:                                               ; preds = %50, %55, %54, %53, %52, %51
  %.str.7.sink = phi ptr [ @.str.7, %55 ], [ @.str.6, %54 ], [ @.str.5, %53 ], [ @.str.4, %52 ], [ @.str.3, %51 ], [ @.str.2, %50 ]
  %57 = load ptr, ptr %31, align 8
  %58 = call i32 @cli_json_parse_error(ptr noundef %57, ptr noundef nonnull %.str.7.sink) #8
  %.not44 = icmp eq i32 %58, 0
  br i1 %.not44, label %.thread, label %.loopexit47

.thread:                                          ; preds = %50, %50, %56, %.loopexit
  %59 = icmp eq i32 %spec.select, 22
  %spec.store.select = select i1 %59, i32 0, i32 %spec.select
  %60 = icmp eq i32 %spec.store.select, 27
  br i1 %60, label %61, label %.loopexit47

61:                                               ; preds = %.thread
  call void (ptr, ...) @cli_dbgmsg(ptr noundef nonnull @.str.8) #8
  br label %.loopexit47

.loopexit47:                                      ; preds = %38, %.thread, %61, %56, %6
  %.029 = phi i32 [ 2, %6 ], [ %58, %56 ], [ 0, %61 ], [ %spec.store.select, %.thread ], [ 21, %38 ]
  ret i32 %.029
}